target datalayout = "e-m:e-p270:32:32-p271:32:32-p272:64:64-i64:64-i128:128-f80:128-n8:16:32:64-S128"
target triple = "x86_64-pc-linux-gnu"

%struct.strbuf = type { i64, i64, ptr }
%struct.trailer_iterator = type { ptr, %struct.strbuf, %struct.strbuf, %struct.anon.0 }
%struct.anon.0 = type { ptr, i64 }

; Function Attrs: nounwind uwtable
define internal i32 @has_conforming_footer(ptr noundef %0, ptr noundef %1, i64 noundef %2) #0 {
  %4 = alloca i32, align 4
  %5 = alloca ptr, align 8
  %6 = alloca ptr, align 8
  %7 = alloca i64, align 8
  %8 = alloca %struct.trailer_iterator, align 8
  %9 = alloca i64, align 8
  %10 = alloca i32, align 4
  %11 = alloca i32, align 4
  %12 = alloca i8, align 1
  %13 = alloca i32, align 4
  store ptr %0, ptr %5, align 8, !tbaa !41
  store ptr %1, ptr %6, align 8, !tbaa !41
  store i64 %2, ptr %7, align 8, !tbaa !43
  call void @llvm.lifetime.start.p0(i64 72, ptr %8) #11
  call void @llvm.lifetime.start.p0(i64 8, ptr %9) #11
  store i64 0, ptr %9, align 8, !tbaa !43
  call void @llvm.lifetime.start.p0(i64 4, ptr %10) #11
  store i32 0, ptr %10, align 4, !tbaa !29
  call void @llvm.lifetime.start.p0(i64 4, ptr %11) #11
  store i32 0, ptr %11, align 4, !tbaa !29
  call void @llvm.lifetime.start.p0(i64 1, ptr %12) #11
  %14 = load i64, ptr %7, align 8, !tbaa !43
  %15 = icmp ne i64 %14, 0
  br i1 %15, label %16, label %36

16:                                               ; preds = %3
  %17 = load ptr, ptr %5, align 8, !tbaa !41
  %18 = getelementptr inbounds nuw %struct.strbuf, ptr %17, i32 0, i32 2
  %19 = load ptr, ptr %18, align 8, !tbaa !37
  %20 = load ptr, ptr %5, align 8, !tbaa !41
  %21 = getelementptr inbounds nuw %struct.strbuf, ptr %20, i32 0, i32 1
  %22 = load i64, ptr %21, align 8, !tbaa !45
  %23 = load i64, ptr %7, align 8, !tbaa !43
  %24 = sub i64 %22, %23
  %25 = getelementptr inbounds nuw i8, ptr %19, i64 %24
  %26 = load i8, ptr %25, align 1, !tbaa !30
  store i8 %26, ptr %12, align 1, !tbaa !30
  %27 = load ptr, ptr %5, align 8, !tbaa !41
  %28 = getelementptr inbounds nuw %struct.strbuf, ptr %27, i32 0, i32 2
  %29 = load ptr, ptr %28, align 8, !tbaa !37
  %30 = load ptr, ptr %5, align 8, !tbaa !41
  %31 = getelementptr inbounds nuw %struct.strbuf, ptr %30, i32 0, i32 1
  %32 = load i64, ptr %31, align 8, !tbaa !45
  %33 = load i64, ptr %7, align 8, !tbaa !43
  %34 = sub i64 %32, %33
  %35 = getelementptr inbounds nuw i8, ptr %29, i64 %34
  store i8 0, ptr %35, align 1, !tbaa !30
  br label %36

36:                                               ; preds = %16, %3
  %37 = load ptr, ptr %5, align 8, !tbaa !41
  %38 = getelementptr inbounds nuw %struct.strbuf, ptr %37, i32 0, i32 2
  %39 = load ptr, ptr %38, align 8, !tbaa !37
  call void @trailer_iterator_init(ptr noundef %8, ptr noundef %39)
  %40 = load i64, ptr %7, align 8, !tbaa !43
  %41 = icmp ne i64 %40, 0
  br i1 %41, label %42, label %53

42:                                               ; preds = %36
  %43 = load i8, ptr %12, align 1, !tbaa !30
  %44 = load ptr, ptr %5, align 8, !tbaa !41
  %45 = getelementptr inbounds nuw %struct.strbuf, ptr %44, i32 0, i32 2
  %46 = load ptr, ptr %45, align 8, !tbaa !37
  %47 = load ptr, ptr %5, align 8, !tbaa !41
  %48 = getelementptr inbounds nuw %struct.strbuf, ptr %47, i32 0, i32 1
  %49 = load i64, ptr %48, align 8, !tbaa !45
  %50 = load i64, ptr %7, align 8, !tbaa !43
  %51 = sub i64 %49, %50
  %52 = getelementptr inbounds nuw i8, ptr %46, i64 %51
  store i8 %43, ptr %52, align 1, !tbaa !30
  br label %53

53:                                               ; preds = %42, %36
  br label %54

54:                                               ; preds = %76, %53
  %55 = call i32 @trailer_iterator_advance(ptr noundef %8)
  %56 = icmp ne i32 %55, 0
  br i1 %56, label %57, label %77

57:                                               ; preds = %54
  %58 = load i64, ptr %9, align 8, !tbaa !43
  %59 = add i64 %58, 1
  store i64 %59, ptr %9, align 8, !tbaa !43
  %60 = load ptr, ptr %6, align 8, !tbaa !41
  %61 = icmp ne ptr %60, null
  br i1 %61, label %62, label %76

62:                                               ; preds = %57
  %63 = getelementptr inbounds nuw %struct.trailer_iterator, ptr %8, i32 0, i32 0
  %64 = load ptr, ptr %63, align 8, !tbaa !239
  %65 = load ptr, ptr %6, align 8, !tbaa !41
  %66 = getelementptr inbounds nuw %struct.strbuf, ptr %65, i32 0, i32 2
  %67 = load ptr, ptr %66, align 8, !tbaa !37
  %68 = load ptr, ptr %6, align 8, !tbaa !41
  %69 = getelementptr inbounds nuw %struct.strbuf, ptr %68, i32 0, i32 1
  %70 = load i64, ptr %69, align 8, !tbaa !45
  %71 = call i32 @strncmp(ptr noundef %64, ptr noundef %67, i64 noundef %70) #12
  %72 = icmp ne i32 %71, 0
  br i1 %72, label %76, label %73

73:                                               ; preds = %62
  %74 = load i64, ptr %9, align 8, !tbaa !43
  %75 = trunc i64 %74 to i32
  store i32 %75, ptr %10, align 4, !tbaa !29
  br label %76

76:                                               ; preds = %73, %62, %57
  br label %54, !llvm.loop !243

77:                                               ; preds = %54
  call void @trailer_iterator_release(ptr noundef %8)
  %78 = load i64, ptr %9, align 8, !tbaa !43
  %79 = icmp ne i64 %78, 0
  br i1 %79, label %81, label %80

80:                                               ; preds = %77
  store i32 0, ptr %4, align 4
  store i32 1, ptr %13, align 4
  br label %95

81:                                               ; preds = %77
  %82 = load i64, ptr %9, align 8, !tbaa !43
  %83 = trunc i64 %82 to i32
  %84 = load i32, ptr %10, align 4, !tbaa !29
  %85 = icmp eq i32 %83, %84
  %86 = zext i1 %85 to i32
  store i32 %86, ptr %11, align 4, !tbaa !29
  %87 = load i32, ptr %11, align 4, !tbaa !29
  %88 = icmp ne i32 %87, 0
  br i1 %88, label %89, label %90

89:                                               ; preds = %81
  store i32 3, ptr %4, align 4
  store i32 1, ptr %13, align 4
  br label %95

90:                                               ; preds = %81
  %91 = load i32, ptr %10, align 4, !tbaa !29
  %92 = icmp ne i32 %91, 0
  br i1 %92, label %93, label %94

93:                                               ; preds = %90
  store i32 2, ptr %4, align 4
  store i32 1, ptr %13, align 4
  br label %95

94:                                               ; preds = %90
  store i32 1, ptr %4, align 4
  store i32 1, ptr %13, align 4
  br label %95

95:                                               ; preds = %94, %93, %89, %80
  call void @llvm.lifetime.end.p0(i64 1, ptr %12) #11
  call void @llvm.lifetime.end.p0(i64 4, ptr %11) #11
  call void @llvm.lifetime.end.p0(i64 4, ptr %10) #11
  call void @llvm.lifetime.end.p0(i64 8, ptr %9) #11
  call void @llvm.lifetime.end.p0(i64 72, ptr %8) #11
  %96 = load i32, ptr %4, align 4
  ret i32 %96
}