; Function Attrs: nounwind uwtable
define internal fastcc range(i32 0, 4) i32 @has_conforming_footer(ptr noundef readonly captures(none) %0, ptr noundef readonly %1, i64 noundef %2) unnamed_addr #0 {
  %4 = alloca %struct.trailer_iterator, align 8
  call void @llvm.lifetime.start.p0(i64 72, ptr nonnull %4) #20
  %.not = icmp eq i64 %2, 0
  %5 = getelementptr inbounds nuw i8, ptr %0, i64 16
  %6 = load ptr, ptr %5, align 8, !tbaa !31
  br i1 %.not, label %.thread, label %7

.thread:                                          ; preds = %3
  call void @trailer_iterator_init(ptr noundef nonnull %4, ptr noundef %6) #20
  br label %18

7:                                                ; preds = %3
  %8 = getelementptr inbounds nuw i8, ptr %0, i64 8
  %9 = load i64, ptr %8, align 8, !tbaa !33
  %10 = sub i64 %9, %2
  %11 = getelementptr inbounds nuw i8, ptr %6, i64 %10
  %12 = load i8, ptr %11, align 1, !tbaa !24
  store i8 0, ptr %11, align 1, !tbaa !24
  %13 = load ptr, ptr %5, align 8, !tbaa !31
  call void @trailer_iterator_init(ptr noundef nonnull %4, ptr noundef %13) #20
  %14 = load ptr, ptr %5, align 8, !tbaa !31
  %15 = load i64, ptr %8, align 8, !tbaa !33
  %16 = sub i64 %15, %2
  %17 = getelementptr inbounds nuw i8, ptr %14, i64 %16
  store i8 %12, ptr %17, align 1, !tbaa !24
  br label %18

18:                                               ; preds = %.thread, %7
  %19 = call i32 @trailer_iterator_advance(ptr noundef nonnull %4) #20
  %.not2935 = icmp eq i32 %19, 0
  br i1 %.not2935, label %._crit_edge.thread, label %.lr.ph

._crit_edge.thread:                               ; preds = %18
  call void @trailer_iterator_release(ptr noundef nonnull %4) #20
  br label %35

.lr.ph:                                           ; preds = %18
  %.not32 = icmp eq ptr %1, null
  %20 = getelementptr inbounds nuw i8, ptr %1, i64 16
  %21 = getelementptr inbounds nuw i8, ptr %1, i64 8
  br i1 %.not32, label %.lr.ph.split.us, label %.lr.ph.split

.lr.ph.split.us:                                  ; preds = %.lr.ph, %.lr.ph.split.us
  %.02436.us = phi i64 [ %22, %.lr.ph.split.us ], [ 0, %.lr.ph ]
  %22 = add i64 %.02436.us, 1
  %23 = call i32 @trailer_iterator_advance(ptr noundef nonnull %4) #20
  %.not29.us = icmp eq i32 %23, 0
  br i1 %.not29.us, label %._crit_edge, label %.lr.ph.split.us, !llvm.loop !254

.lr.ph.split:                                     ; preds = %.lr.ph, %.lr.ph.split
  %.02337 = phi i32 [ %spec.select, %.lr.ph.split ], [ 0, %.lr.ph ]
  %.02436 = phi i64 [ %24, %.lr.ph.split ], [ 0, %.lr.ph ]
  %24 = add i64 %.02436, 1
  %25 = load ptr, ptr %4, align 8, !tbaa !255
  %26 = load ptr, ptr %20, align 8, !tbaa !31
  %27 = load i64, ptr %21, align 8, !tbaa !33
  %28 = call i32 @strncmp(ptr noundef %25, ptr noundef %26, i64 noundef %27) #21
  %.not33 = icmp eq i32 %28, 0
  %29 = trunc i64 %24 to i32
  %spec.select = select i1 %.not33, i32 %29, i32 %.02337
  %30 = call i32 @trailer_iterator_advance(ptr noundef nonnull %4) #20
  %.not29 = icmp eq i32 %30, 0
  br i1 %.not29, label %._crit_edge, label %.lr.ph.split, !llvm.loop !254

._crit_edge:                                      ; preds = %.lr.ph.split, %.lr.ph.split.us
  %.024.lcssa = phi i64 [ %22, %.lr.ph.split.us ], [ %24, %.lr.ph.split ]
  %.023.lcssa = phi i32 [ 0, %.lr.ph.split.us ], [ %spec.select, %.lr.ph.split ]
  call void @trailer_iterator_release(ptr noundef nonnull %4) #20
  %.not30 = icmp eq i64 %.024.lcssa, 0
  br i1 %.not30, label %35, label %31

31:                                               ; preds = %._crit_edge
  %32 = trunc i64 %.024.lcssa to i32
  %33 = icmp eq i32 %.023.lcssa, %32
  br i1 %33, label %35, label %34

34:                                               ; preds = %31
  %.not31 = icmp eq i32 %.023.lcssa, 0
  %. = select i1 %.not31, i32 1, i32 2
  br label %35

35:                                               ; preds = %._crit_edge.thread, %34, %31, %._crit_edge
  %.025 = phi i32 [ 0, %._crit_edge ], [ 3, %31 ], [ %., %34 ], [ 0, %._crit_edge.thread ]
  call void @llvm.lifetime.end.p0(i64 72, ptr nonnull %4) #20
  ret i32 %.025
}